target datalayout = "e-m:e-p270:32:32-p271:32:32-p272:64:64-i64:64-i128:128-f80:128-n8:16:32:64-S128"
target triple = "x86_64-pc-linux-gnu"

; Function Attrs: nounwind uwtable
define internal i32 @HasAlpha32b_C(ptr noundef %0, i32 noundef %1) #0 {
  %3 = alloca i32, align 4
  %4 = alloca ptr, align 8
  %5 = alloca i32, align 4
  %6 = alloca i32, align 4
  %7 = alloca i32, align 4
  store ptr %0, ptr %4, align 8, !tbaa !13
  store i32 %1, ptr %5, align 4, !tbaa !8
  call void @llvm.lifetime.start.p0(i64 4, ptr %6) #5
  store i32 0, ptr %6, align 4, !tbaa !8
  br label %8

8:                                                ; preds = %22, %2
  %9 = load i32, ptr %5, align 4, !tbaa !8
  %10 = add nsw i32 %9, -1
  store i32 %10, ptr %5, align 4, !tbaa !8
  %11 = icmp sgt i32 %9, 0
  br i1 %11, label %12, label %25

12:                                               ; preds = %8
  %13 = load ptr, ptr %4, align 8, !tbaa !13
  %14 = load i32, ptr %6, align 4, !tbaa !8
  %15 = sext i32 %14 to i64
  %16 = getelementptr inbounds i8, ptr %13, i64 %15
  %17 = load i8, ptr %16, align 1, !tbaa !12
  %18 = zext i8 %17 to i32
  %19 = icmp ne i32 %18, 255
  br i1 %19, label %20, label %21

20:                                               ; preds = %12
  store i32 1, ptr %3, align 4
  store i32 1, ptr %7, align 4
  br label %26

21:                                               ; preds = %12
  br label %22

22:                                               ; preds = %21
  %23 = load i32, ptr %6, align 4, !tbaa !8
  %24 = add nsw i32 %23, 4
  store i32 %24, ptr %6, align 4, !tbaa !8
  br label %8, !llvm.loop !30

25:                                               ; preds = %8
  store i32 0, ptr %3, align 4
  store i32 1, ptr %7, align 4
  br label %26

26:                                               ; preds = %25, %20
  call void @llvm.lifetime.end.p0(i64 4, ptr %6) #5
  %27 = load i32, ptr %3, align 4
  ret i32 %27
}