; Function Attrs: nofree norecurse nosync nounwind memory(argmem: read) uwtable
define internal range(i32 0, 2) i32 @HasAlpha32b_C(ptr noundef readonly captures(none) %0, i32 noundef %1) #3 {
  %3 = icmp sgt i32 %1, 0
  br i1 %3, label %.lr.ph, label %._crit_edge

4:                                                ; preds = %.lr.ph
  %indvars.iv.next = add nuw nsw i64 %indvars.iv, 4
  %5 = add nsw i32 %.in, -1
  %6 = icmp sgt i32 %.in, 1
  br i1 %6, label %.lr.ph, label %._crit_edge, !llvm.loop !28

.lr.ph:                                           ; preds = %2, %4
  %indvars.iv = phi i64 [ %indvars.iv.next, %4 ], [ 0, %2 ]
  %.in = phi i32 [ %5, %4 ], [ %1, %2 ]
  %7 = getelementptr inbounds nuw i8, ptr %0, i64 %indvars.iv
  %8 = load i8, ptr %7, align 1, !tbaa !9
  %.not = icmp eq i8 %8, -1
  br i1 %.not, label %4, label %._crit_edge

._crit_edge:                                      ; preds = %.lr.ph, %4, %2
  %.05 = phi i32 [ 0, %2 ], [ 0, %4 ], [ 1, %.lr.ph ]
  ret i32 %.05
}